target datalayout = "e-m:e-p270:32:32-p271:32:32-p272:64:64-i64:64-i128:128-f80:128-n8:16:32:64-S128"
target triple = "x86_64-pc-linux-gnu"

%struct.pg_tm = type { i32, i32, i32, i32, i32, i32, i32, i32, i32, i64, ptr }
%struct.state = type { i32, i32, i32, i32, i8, i8, [2000 x i64], [2000 x i8], [256 x %struct.ttinfo], [512 x i8], [50 x %struct.lsinfo], i32 }
%struct.ttinfo = type { i32, i8, i32, i8, i8 }
%struct.lsinfo = type { i64, i64 }

@tm = internal global %struct.pg_tm zeroinitializer, align 8
@gmtsub.gmtptr = internal global ptr null, align 8
@wildabbr = internal constant [4 x i8] c"   \00", align 1
@gmt = internal constant [4 x i8] c"GMT\00", align 1

; Function Attrs: nounwind uwtable
define internal void @gmtload(ptr noundef %0) #0 {
  %2 = alloca ptr, align 8
  store ptr %0, ptr %2, align 8
  %3 = load ptr, ptr %2, align 8
  %4 = call i32 @tzload(ptr noundef @gmt, ptr noundef null, ptr noundef %3, i1 noundef zeroext true)
  %5 = icmp ne i32 %4, 0
  br i1 %5, label %6, label %9

6:                                                ; preds = %1
  %7 = load ptr, ptr %2, align 8
  %8 = call zeroext i1 @tzparse(ptr noundef @gmt, ptr noundef %7, i1 noundef zeroext true)
  br label %9

9:                                                ; preds = %6, %1
  ret void
}

; Function Attrs: nounwind uwtable
define internal ptr @gmtsub(ptr noundef %0, i32 noundef %1, ptr noundef %2) #0 {
  %4 = alloca ptr, align 8
  %5 = alloca ptr, align 8
  %6 = alloca i32, align 4
  %7 = alloca ptr, align 8
  %8 = alloca ptr, align 8
  %9 = alloca i32, align 4
  store ptr %0, ptr %5, align 8
  store i32 %1, ptr %6, align 4
  store ptr %2, ptr %7, align 8
  call void @llvm.lifetime.start.p0(i64 8, ptr %8) #8
  %10 = load ptr, ptr @gmtsub.gmtptr, align 8
  %11 = icmp eq ptr %10, null
  br i1 %11, label %12, label %19

12:                                               ; preds = %3
  %13 = call noalias ptr @malloc(i64 noundef 23440) #9
  store ptr %13, ptr @gmtsub.gmtptr, align 8
  %14 = load ptr, ptr @gmtsub.gmtptr, align 8
  %15 = icmp eq ptr %14, null
  br i1 %15, label %16, label %17

16:                                               ; preds = %12
  store ptr null, ptr %4, align 8
  store i32 1, ptr %9, align 4
  br label %38

17:                                               ; preds = %12
  %18 = load ptr, ptr @gmtsub.gmtptr, align 8
  call void @gmtload(ptr noundef %18)
  br label %19

19:                                               ; preds = %17, %3
  %20 = load ptr, ptr %5, align 8
  %21 = load i32, ptr %6, align 4
  %22 = load ptr, ptr @gmtsub.gmtptr, align 8
  %23 = load ptr, ptr %7, align 8
  %24 = call ptr @timesub(ptr noundef %20, i32 noundef %21, ptr noundef %22, ptr noundef %23)
  store ptr %24, ptr %8, align 8
  %25 = load i32, ptr %6, align 4
  %26 = icmp ne i32 %25, 0
  br i1 %26, label %27, label %30

27:                                               ; preds = %19
  %28 = load ptr, ptr %7, align 8
  %29 = getelementptr inbounds nuw %struct.pg_tm, ptr %28, i32 0, i32 10
  store ptr @wildabbr, ptr %29, align 8
  br label %36

30:                                               ; preds = %19
  %31 = load ptr, ptr @gmtsub.gmtptr, align 8
  %32 = getelementptr inbounds nuw %struct.state, ptr %31, i32 0, i32 9
  %33 = getelementptr inbounds [512 x i8], ptr %32, i64 0, i64 0
  %34 = load ptr, ptr %7, align 8
  %35 = getelementptr inbounds nuw %struct.pg_tm, ptr %34, i32 0, i32 10
  store ptr %33, ptr %35, align 8
  br label %36

36:                                               ; preds = %30, %27
  %37 = load ptr, ptr %8, align 8
  store ptr %37, ptr %4, align 8
  store i32 1, ptr %9, align 4
  br label %38

38:                                               ; preds = %36, %16
  call void @llvm.lifetime.end.p0(i64 8, ptr %8) #8
  %39 = load ptr, ptr %4, align 8
  ret ptr %39
}

; Function Attrs: nounwind uwtable
define dso_local ptr @pg_gmtime(ptr noundef %0) #0 {
  %2 = alloca ptr, align 8
  store ptr %0, ptr %2, align 8
  %3 = load ptr, ptr %2, align 8
  %4 = call ptr @gmtsub(ptr noundef %3, i32 noundef 0, ptr noundef @tm)
  ret ptr %4
}