; Function Attrs: nounwind uwtable
define dso_local noundef ptr @pg_gmtime(ptr noundef readonly captures(none) %0) local_unnamed_addr #0 {
  %2 = load ptr, ptr @gmtsub.gmtptr, align 8
  %3 = icmp eq ptr %2, null
  br i1 %3, label %4, label %gmtload.exit.i

4:                                                ; preds = %1
  %5 = tail call noalias dereferenceable_or_null(23440) ptr @malloc(i64 noundef 23440) #18
  store ptr %5, ptr @gmtsub.gmtptr, align 8
  %6 = icmp eq ptr %5, null
  br i1 %6, label %gmtsub.exit, label %7

7:                                                ; preds = %4
  %8 = tail call i32 @tzload(ptr noundef nonnull @gmt, ptr noundef null, ptr noundef nonnull %5, i1 noundef zeroext true)
  %.not.i.i = icmp eq i32 %8, 0
  br i1 %.not.i.i, label %gmtload.exit.i, label %9

9:                                                ; preds = %7
  %10 = tail call zeroext i1 @tzparse(ptr noundef nonnull @gmt, ptr noundef nonnull %5, i1 noundef zeroext true)
  br label %gmtload.exit.i

gmtload.exit.i:                                   ; preds = %9, %7, %1
  %11 = load ptr, ptr @gmtsub.gmtptr, align 8
  %12 = tail call fastcc ptr @timesub(ptr noundef readonly %0, i32 noundef 0, ptr noundef %11)
  %13 = load ptr, ptr @gmtsub.gmtptr, align 8
  %14 = getelementptr inbounds nuw i8, ptr %13, i64 22120
  store ptr %14, ptr getelementptr inbounds nuw (i8, ptr @tm, i64 48), align 8
  br label %gmtsub.exit

gmtsub.exit:                                      ; preds = %4, %gmtload.exit.i
  %.0.i = phi ptr [ %12, %gmtload.exit.i ], [ null, %4 ]
  ret ptr %.0.i
}